; Function Attrs: mustprogress uwtable
define hidden void @_ZN19OpenColorIO_v2_4dev18FormatMetadataImplC2ERKNSt7__cxx1112basic_stringIcSt11char_traitsIcESaIcEEES8_(ptr noundef nonnull align 8 dereferenceable(120) %this, ptr noundef nonnull align 8 dereferenceable(32) %name, ptr noundef nonnull align 8 dereferenceable(32) %value) unnamed_addr #0 align 2 personality ptr @__gxx_personality_v0 {
entry:
  store ptr getelementptr inbounds ({ [23 x ptr] }, ptr @_ZTVN19OpenColorIO_v2_4dev18FormatMetadataImplE, i64 0, i32 0, i64 2), ptr %this, align 8
  %m_name = getelementptr inbounds i8, ptr %this, i64 8
  tail call void @_ZNSt7__cxx1112basic_stringIcSt11char_traitsIcESaIcEEC1ERKS4_(ptr noundef nonnull align 8 dereferenceable(32) %m_name, ptr noundef nonnull align 8 dereferenceable(32) %name)
  %m_value = getelementptr inbounds i8, ptr %this, i64 40
  invoke void @_ZNSt7__cxx1112basic_stringIcSt11char_traitsIcESaIcEEC1ERKS4_(ptr noundef nonnull align 8 dereferenceable(32) %m_value, ptr noundef nonnull align 8 dereferenceable(32) %value)
          to label %invoke.cont3 unwind label %lpad2

invoke.cont3:                                     ; preds = %entry
  %m_attributes = getelementptr inbounds i8, ptr %this, i64 72
  %m_elements = getelementptr inbounds i8, ptr %this, i64 96
  tail call void @llvm.memset.p0.i64(ptr noundef nonnull align 8 dereferenceable(48) %m_attributes, i8 0, i64 48, i1 false)
  %call = tail call noundef zeroext i1 @_ZNKSt7__cxx1112basic_stringIcSt11char_traitsIcESaIcEE5emptyEv(ptr noundef nonnull align 8 dereferenceable(32) %name) #17
  br i1 %call, label %if.then, label %if.end

if.then:                                          ; preds = %invoke.cont3
  %exception = tail call ptr @__cxa_allocate_exception(i64 16) #17
  invoke void @_ZN19OpenColorIO_v2_4dev9ExceptionC1EPKc(ptr noundef nonnull align 8 dereferenceable(16) %exception, ptr noundef nonnull @.str.13)
          to label %invoke.cont5 unwind label %lpad4

invoke.cont5:                                     ; preds = %if.then
  invoke void @__cxa_throw(ptr nonnull %exception, ptr nonnull @_ZTIN19OpenColorIO_v2_4dev9ExceptionE, ptr nonnull @_ZN19OpenColorIO_v2_4dev9ExceptionD1Ev) #18
          to label %unreachable unwind label %lpad6

lpad2:                                            ; preds = %entry
  %0 = landingpad { ptr, i32 }
          cleanup
  br label %ehcleanup9

lpad4:                                            ; preds = %if.then
  %1 = landingpad { ptr, i32 }
          cleanup
  tail call void @__cxa_free_exception(ptr %exception) #17
  br label %ehcleanup

lpad6:                                            ; preds = %invoke.cont5
  %2 = landingpad { ptr, i32 }
          cleanup
  br label %ehcleanup

if.end:                                           ; preds = %invoke.cont3
  ret void

ehcleanup:                                        ; preds = %lpad6, %lpad4
  %.pn = phi { ptr, i32 } [ %2, %lpad6 ], [ %1, %lpad4 ]
  tail call void @_ZNSt6vectorIN19OpenColorIO_v2_4dev18FormatMetadataImplESaIS1_EED2Ev(ptr noundef nonnull align 8 dereferenceable(24) %m_elements) #17
  tail call void @_ZNSt6vectorISt4pairINSt7__cxx1112basic_stringIcSt11char_traitsIcESaIcEEES6_ESaIS7_EED2Ev(ptr noundef nonnull align 8 dereferenceable(24) %m_attributes) #17
  tail call void @_ZNSt7__cxx1112basic_stringIcSt11char_traitsIcESaIcEED1Ev(ptr noundef nonnull align 8 dereferenceable(32) %m_value) #17
  br label %ehcleanup9

ehcleanup9:                                       ; preds = %ehcleanup, %lpad2
  %.pn.pn = phi { ptr, i32 } [ %.pn, %ehcleanup ], [ %0, %lpad2 ]
  tail call void @_ZNSt7__cxx1112basic_stringIcSt11char_traitsIcESaIcEED1Ev(ptr noundef nonnull align 8 dereferenceable(32) %m_name) #17
  resume { ptr, i32 } %.pn.pn

unreachable:                                      ; preds = %invoke.cont5
  unreachable
}